target datalayout = "e-m:e-p270:32:32-p271:32:32-p272:64:64-i64:64-i128:128-f80:128-n8:16:32:64-S128"
target triple = "x86_64-pc-linux-gnu"

%struct.Vec_Str_t_ = type { i32, i32, ptr }

; Function Attrs: nounwind uwtable
define internal ptr @Vec_StrArray(ptr noundef %0) #0 {
  %2 = alloca ptr, align 8
  store ptr %0, ptr %2, align 8
  %3 = load ptr, ptr %2, align 8
  %4 = getelementptr inbounds %struct.Vec_Str_t_, ptr %3, i32 0, i32 2
  %5 = load ptr, ptr %4, align 8
  ret ptr %5
}

; Function Attrs: nounwind uwtable
define i32 @Mio_UpdateGenlib2(ptr noundef %0, ptr noundef %1, ptr noundef %2, i32 noundef %3) #0 {
  %5 = alloca i32, align 4
  %6 = alloca ptr, align 8
  %7 = alloca ptr, align 8
  %8 = alloca ptr, align 8
  %9 = alloca i32, align 4
  %10 = alloca ptr, align 8
  store ptr %0, ptr %6, align 8
  store ptr %1, ptr %7, align 8
  store ptr %2, ptr %8, align 8
  store i32 %3, ptr %9, align 4
  %11 = load ptr, ptr %8, align 8
  %12 = load ptr, ptr %6, align 8
  %13 = call ptr @Vec_StrArray(ptr noundef %12)
  %14 = load i32, ptr %9, align 4
  %15 = call ptr @Mio_LibraryRead(ptr noundef %11, ptr noundef %13, ptr noundef null, i32 noundef %14)
  store ptr %15, ptr %10, align 8
  %16 = load ptr, ptr %10, align 8
  %17 = icmp eq ptr %16, null
  br i1 %17, label %18, label %19

18:                                               ; preds = %4
  store i32 0, ptr %5, align 4
  br label %37

19:                                               ; preds = %4
  %20 = call ptr (...) @Abc_FrameReadLibSuper()
  %21 = icmp ne ptr %20, null
  br i1 %21, label %22, label %24

22:                                               ; preds = %19
  %23 = call ptr (...) @Abc_FrameReadLibSuper()
  call void @Map_SuperLibFree(ptr noundef %23)
  call void @Abc_FrameSetLibSuper(ptr noundef null)
  br label %24

24:                                               ; preds = %22, %19
  %25 = call ptr (...) @Abc_FrameReadLibGen()
  call void @Mio_LibraryDelete(ptr noundef %25)
  %26 = load ptr, ptr %10, align 8
  call void @Abc_FrameSetLibGen(ptr noundef %26)
  %27 = load ptr, ptr %8, align 8
  %28 = load ptr, ptr %7, align 8
  %29 = call ptr @Vec_StrArray(ptr noundef %28)
  %30 = call ptr @Amap_LibReadAndPrepare(ptr noundef %27, ptr noundef %29, i32 noundef 0, i32 noundef 0)
  store ptr %30, ptr %10, align 8
  %31 = load ptr, ptr %10, align 8
  %32 = icmp eq ptr %31, null
  br i1 %32, label %33, label %34

33:                                               ; preds = %24
  store i32 0, ptr %5, align 4
  br label %37

34:                                               ; preds = %24
  %35 = call ptr (...) @Abc_FrameReadLibGen2()
  call void @Amap_LibFree(ptr noundef %35)
  %36 = load ptr, ptr %10, align 8
  call void @Abc_FrameSetLibGen2(ptr noundef %36)
  store i32 1, ptr %5, align 4
  br label %37

37:                                               ; preds = %34, %33, %18
  %38 = load i32, ptr %5, align 4
  ret i32 %38
}