; Function Attrs: nounwind uwtable
define range(i32 0, 2) i32 @Mio_UpdateGenlib2(ptr noundef readonly captures(none) %0, ptr noundef readonly captures(none) %1, ptr noundef %2, i32 noundef %3) local_unnamed_addr #0 {
  %5 = getelementptr i8, ptr %0, i64 8
  %.val = load ptr, ptr %5, align 8
  %6 = tail call ptr @Mio_LibraryRead(ptr noundef %2, ptr noundef %.val, ptr noundef null, i32 noundef %3) #8
  %7 = icmp eq ptr %6, null
  br i1 %7, label %19, label %8

8:                                                ; preds = %4
  %9 = tail call ptr (...) @Abc_FrameReadLibSuper() #8
  %.not = icmp eq ptr %9, null
  br i1 %.not, label %12, label %10

10:                                               ; preds = %8
  %11 = tail call ptr (...) @Abc_FrameReadLibSuper() #8
  tail call void @Map_SuperLibFree(ptr noundef %11) #8
  tail call void @Abc_FrameSetLibSuper(ptr noundef null) #8
  br label %12

12:                                               ; preds = %10, %8
  %13 = tail call ptr (...) @Abc_FrameReadLibGen() #8
  tail call void @Mio_LibraryDelete(ptr noundef %13) #8
  tail call void @Abc_FrameSetLibGen(ptr noundef nonnull %6) #8
  %14 = getelementptr i8, ptr %1, i64 8
  %.val11 = load ptr, ptr %14, align 8
  %15 = tail call ptr @Amap_LibReadAndPrepare(ptr noundef %2, ptr noundef %.val11, i32 noundef 0, i32 noundef 0) #8
  %16 = icmp eq ptr %15, null
  br i1 %16, label %19, label %17

17:                                               ; preds = %12
  %18 = tail call ptr (...) @Abc_FrameReadLibGen2() #8
  tail call void @Amap_LibFree(ptr noundef %18) #8
  tail call void @Abc_FrameSetLibGen2(ptr noundef nonnull %15) #8
  br label %19

19:                                               ; preds = %12, %4, %17
  %.0 = phi i32 [ 1, %17 ], [ 0, %4 ], [ 0, %12 ]
  ret i32 %.0
}